target datalayout = "e-m:e-p270:32:32-p271:32:32-p272:64:64-i64:64-i128:128-f80:128-n8:16:32:64-S128"
target triple = "x86_64-pc-linux-gnu"

@.str.1 = private unnamed_addr constant [38 x i8] c"../openssl/test/tls13encryptiontest.c\00", align 1

; Function Attrs: nounwind uwtable
define internal ptr @multihexstr2buf(ptr noundef %0, ptr noundef %1) #0 {
  %3 = alloca ptr, align 8
  %4 = alloca ptr, align 8
  %5 = alloca ptr, align 8
  %6 = alloca i64, align 8
  %7 = alloca i64, align 8
  %8 = alloca i64, align 8
  %9 = alloca ptr, align 8
  %10 = alloca i64, align 8
  %11 = alloca i32, align 4
  %12 = alloca i32, align 4
  %13 = alloca i32, align 4
  store ptr %0, ptr %4, align 8, !tbaa !45
  store ptr %1, ptr %5, align 8, !tbaa !53
  call void @llvm.lifetime.start.p0(i64 8, ptr %6) #5
  call void @llvm.lifetime.start.p0(i64 8, ptr %7) #5
  call void @llvm.lifetime.start.p0(i64 8, ptr %8) #5
  store i64 0, ptr %8, align 8, !tbaa !21
  call void @llvm.lifetime.start.p0(i64 8, ptr %9) #5
  call void @llvm.lifetime.start.p0(i64 8, ptr %10) #5
  store i64 0, ptr %10, align 8, !tbaa !21
  store i64 0, ptr %6, align 8, !tbaa !21
  br label %14

14:                                               ; preds = %30, %2
  %15 = load i64, ptr %6, align 8, !tbaa !21
  %16 = icmp ult i64 %15, 3
  br i1 %16, label %17, label %33

17:                                               ; preds = %14
  %18 = load ptr, ptr %4, align 8, !tbaa !45
  %19 = load i64, ptr %6, align 8, !tbaa !21
  %20 = getelementptr inbounds nuw ptr, ptr %18, i64 %19
  %21 = load ptr, ptr %20, align 8, !tbaa !4
  %22 = call i64 @strlen(ptr noundef %21) #6
  %23 = load i64, ptr %10, align 8, !tbaa !21
  %24 = add i64 %23, %22
  store i64 %24, ptr %10, align 8, !tbaa !21
  %25 = load i64, ptr %10, align 8, !tbaa !21
  %26 = and i64 %25, 1
  %27 = icmp ne i64 %26, 0
  br i1 %27, label %28, label %29

28:                                               ; preds = %17
  store ptr null, ptr %3, align 8
  store i32 1, ptr %11, align 4
  br label %105

29:                                               ; preds = %17
  br label %30

30:                                               ; preds = %29
  %31 = load i64, ptr %6, align 8, !tbaa !21
  %32 = add i64 %31, 1
  store i64 %32, ptr %6, align 8, !tbaa !21
  br label %14, !llvm.loop !55

33:                                               ; preds = %14
  %34 = load i64, ptr %10, align 8, !tbaa !21
  %35 = udiv i64 %34, 2
  store i64 %35, ptr %10, align 8, !tbaa !21
  %36 = load i64, ptr %10, align 8, !tbaa !21
  %37 = call noalias ptr @CRYPTO_malloc(i64 noundef %36, ptr noundef @.str.1, i32 noundef 218)
  store ptr %37, ptr %9, align 8, !tbaa !4
  %38 = load ptr, ptr %9, align 8, !tbaa !4
  %39 = icmp eq ptr %38, null
  br i1 %39, label %40, label %41

40:                                               ; preds = %33
  store ptr null, ptr %3, align 8
  store i32 1, ptr %11, align 4
  br label %105

41:                                               ; preds = %33
  store i64 0, ptr %6, align 8, !tbaa !21
  br label %42

42:                                               ; preds = %98, %41
  %43 = load i64, ptr %6, align 8, !tbaa !21
  %44 = icmp ult i64 %43, 3
  br i1 %44, label %45, label %101

45:                                               ; preds = %42
  store i64 0, ptr %7, align 8, !tbaa !21
  br label %46

46:                                               ; preds = %94, %45
  %47 = load ptr, ptr %4, align 8, !tbaa !45
  %48 = load i64, ptr %6, align 8, !tbaa !21
  %49 = getelementptr inbounds nuw ptr, ptr %47, i64 %48
  %50 = load ptr, ptr %49, align 8, !tbaa !4
  %51 = load i64, ptr %7, align 8, !tbaa !21
  %52 = getelementptr inbounds nuw i8, ptr %50, i64 %51
  %53 = load i8, ptr %52, align 1, !tbaa !56
  %54 = sext i8 %53 to i32
  %55 = icmp ne i32 %54, 0
  br i1 %55, label %56, label %97

56:                                               ; preds = %46
  call void @llvm.lifetime.start.p0(i64 4, ptr %12) #5
  call void @llvm.lifetime.start.p0(i64 4, ptr %13) #5
  %57 = load ptr, ptr %4, align 8, !tbaa !45
  %58 = load i64, ptr %6, align 8, !tbaa !21
  %59 = getelementptr inbounds nuw ptr, ptr %57, i64 %58
  %60 = load ptr, ptr %59, align 8, !tbaa !4
  %61 = load i64, ptr %7, align 8, !tbaa !21
  %62 = getelementptr inbounds nuw i8, ptr %60, i64 %61
  %63 = load i8, ptr %62, align 1, !tbaa !56
  %64 = call i32 @OPENSSL_hexchar2int(i8 noundef zeroext %63)
  store i32 %64, ptr %12, align 4, !tbaa !11
  %65 = load ptr, ptr %4, align 8, !tbaa !45
  %66 = load i64, ptr %6, align 8, !tbaa !21
  %67 = getelementptr inbounds nuw ptr, ptr %65, i64 %66
  %68 = load ptr, ptr %67, align 8, !tbaa !4
  %69 = load i64, ptr %7, align 8, !tbaa !21
  %70 = add i64 %69, 1
  %71 = getelementptr inbounds nuw i8, ptr %68, i64 %70
  %72 = load i8, ptr %71, align 1, !tbaa !56
  %73 = call i32 @OPENSSL_hexchar2int(i8 noundef zeroext %72)
  store i32 %73, ptr %13, align 4, !tbaa !11
  %74 = load i32, ptr %12, align 4, !tbaa !11
  %75 = icmp slt i32 %74, 0
  br i1 %75, label %79, label %76

76:                                               ; preds = %56
  %77 = load i32, ptr %13, align 4, !tbaa !11
  %78 = icmp slt i32 %77, 0
  br i1 %78, label %79, label %81

79:                                               ; preds = %76, %56
  %80 = load ptr, ptr %9, align 8, !tbaa !4
  call void @CRYPTO_free(ptr noundef %80, ptr noundef @.str.1, i32 noundef 230)
  store ptr null, ptr %3, align 8
  store i32 1, ptr %11, align 4
  br label %91

81:                                               ; preds = %76
  %82 = load i32, ptr %12, align 4, !tbaa !11
  %83 = shl i32 %82, 4
  %84 = load i32, ptr %13, align 4, !tbaa !11
  %85 = or i32 %83, %84
  %86 = trunc i32 %85 to i8
  %87 = load ptr, ptr %9, align 8, !tbaa !4
  %88 = load i64, ptr %8, align 8, !tbaa !21
  %89 = add i64 %88, 1
  store i64 %89, ptr %8, align 8, !tbaa !21
  %90 = getelementptr inbounds nuw i8, ptr %87, i64 %88
  store i8 %86, ptr %90, align 1, !tbaa !56
  store i32 0, ptr %11, align 4
  br label %91

91:                                               ; preds = %81, %79
  call void @llvm.lifetime.end.p0(i64 4, ptr %13) #5
  call void @llvm.lifetime.end.p0(i64 4, ptr %12) #5
  %92 = load i32, ptr %11, align 4
  switch i32 %92, label %105 [
    i32 0, label %93
  ]

93:                                               ; preds = %91
  br label %94

94:                                               ; preds = %93
  %95 = load i64, ptr %7, align 8, !tbaa !21
  %96 = add i64 %95, 2
  store i64 %96, ptr %7, align 8, !tbaa !21
  br label %46, !llvm.loop !57

97:                                               ; preds = %46
  br label %98

98:                                               ; preds = %97
  %99 = load i64, ptr %6, align 8, !tbaa !21
  %100 = add i64 %99, 1
  store i64 %100, ptr %6, align 8, !tbaa !21
  br label %42, !llvm.loop !58

101:                                              ; preds = %42
  %102 = load i64, ptr %10, align 8, !tbaa !21
  %103 = load ptr, ptr %5, align 8, !tbaa !53
  store i64 %102, ptr %103, align 8, !tbaa !21
  %104 = load ptr, ptr %9, align 8, !tbaa !4
  store ptr %104, ptr %3, align 8
  store i32 1, ptr %11, align 4
  br label %105

105:                                              ; preds = %101, %91, %40, %28
  call void @llvm.lifetime.end.p0(i64 8, ptr %10) #5
  call void @llvm.lifetime.end.p0(i64 8, ptr %9) #5
  call void @llvm.lifetime.end.p0(i64 8, ptr %8) #5
  call void @llvm.lifetime.end.p0(i64 8, ptr %7) #5
  call void @llvm.lifetime.end.p0(i64 8, ptr %6) #5
  %106 = load ptr, ptr %3, align 8
  ret ptr %106
}