; Function Attrs: nounwind uwtable
define internal fastcc ptr @multihexstr2buf(ptr noundef readonly captures(none) %0, ptr noundef nonnull writeonly captures(none) %1) unnamed_addr #0 {
  br label %5

3:                                                ; preds = %5
  %4 = add nuw nsw i64 %.03353, 1
  %exitcond.not = icmp eq i64 %4, 3
  br i1 %exitcond.not, label %11, label %5, !llvm.loop !41

5:                                                ; preds = %2, %3
  %.03353 = phi i64 [ 0, %2 ], [ %4, %3 ]
  %.03652 = phi i64 [ 0, %2 ], [ %9, %3 ]
  %6 = getelementptr inbounds nuw ptr, ptr %0, i64 %.03353
  %7 = load ptr, ptr %6, align 8, !tbaa !42
  %8 = tail call i64 @strlen(ptr noundef nonnull dereferenceable(1) %7) #6
  %9 = add i64 %8, %.03652
  %10 = and i64 %9, 1
  %.not46 = icmp eq i64 %10, 0
  br i1 %.not46, label %3, label %.loopexit

11:                                               ; preds = %3
  %12 = lshr exact i64 %9, 1
  %13 = tail call noalias ptr @CRYPTO_malloc(i64 noundef %12, ptr noundef nonnull @.str.1, i32 noundef 218) #5
  %14 = icmp eq ptr %13, null
  br i1 %14, label %.loopexit, label %.preheader

.preheader:                                       ; preds = %11, %._crit_edge
  %.13458 = phi i64 [ %38, %._crit_edge ], [ 0, %11 ]
  %.03857 = phi i64 [ %.139.lcssa, %._crit_edge ], [ 0, %11 ]
  %15 = getelementptr inbounds nuw ptr, ptr %0, i64 %.13458
  %16 = load ptr, ptr %15, align 8, !tbaa !42
  %17 = load i8, ptr %16, align 1, !tbaa !43
  %.not54 = icmp eq i8 %17, 0
  br i1 %.not54, label %._crit_edge, label %.lr.ph

.lr.ph:                                           ; preds = %.preheader, %28
  %18 = phi i8 [ %37, %28 ], [ %17, %.preheader ]
  %.03756 = phi i64 [ %34, %28 ], [ 0, %.preheader ]
  %.13955 = phi i64 [ %32, %28 ], [ %.03857, %.preheader ]
  %19 = tail call i32 @OPENSSL_hexchar2int(i8 noundef zeroext %18) #5
  %20 = load ptr, ptr %15, align 8, !tbaa !42
  %21 = or disjoint i64 %.03756, 1
  %22 = getelementptr inbounds nuw i8, ptr %20, i64 %21
  %23 = load i8, ptr %22, align 1, !tbaa !43
  %24 = tail call i32 @OPENSSL_hexchar2int(i8 noundef zeroext %23) #5
  %25 = icmp sgt i32 %19, -1
  %26 = icmp sgt i32 %24, -1
  %or.cond.not = select i1 %25, i1 %26, i1 false
  br i1 %or.cond.not, label %28, label %27

27:                                               ; preds = %.lr.ph
  tail call void @CRYPTO_free(ptr noundef nonnull %13, ptr noundef nonnull @.str.1, i32 noundef 230) #5
  br label %.loopexit

28:                                               ; preds = %.lr.ph
  %29 = shl i32 %19, 4
  %30 = or i32 %24, %29
  %31 = trunc i32 %30 to i8
  %32 = add i64 %.13955, 1
  %33 = getelementptr inbounds nuw i8, ptr %13, i64 %.13955
  store i8 %31, ptr %33, align 1, !tbaa !43
  %34 = add i64 %.03756, 2
  %35 = load ptr, ptr %15, align 8, !tbaa !42
  %36 = getelementptr inbounds nuw i8, ptr %35, i64 %34
  %37 = load i8, ptr %36, align 1, !tbaa !43
  %.not = icmp eq i8 %37, 0
  br i1 %.not, label %._crit_edge, label %.lr.ph, !llvm.loop !44

._crit_edge:                                      ; preds = %28, %.preheader
  %.139.lcssa = phi i64 [ %.03857, %.preheader ], [ %32, %28 ]
  %38 = add nuw nsw i64 %.13458, 1
  %exitcond61.not = icmp eq i64 %38, 3
  br i1 %exitcond61.not, label %39, label %.preheader, !llvm.loop !45

39:                                               ; preds = %._crit_edge
  store i64 %12, ptr %1, align 8, !tbaa !21
  br label %.loopexit

.loopexit:                                        ; preds = %5, %27, %11, %39
  %.0 = phi ptr [ null, %27 ], [ %13, %39 ], [ null, %11 ], [ null, %5 ]
  ret ptr %.0
}